; Function Attrs: mustprogress nofree norecurse nosync nounwind willreturn memory(readwrite, inaccessiblemem: none) uwtable
define hidden void @lxb_html_tree_open_elements_pop_until(ptr nocapture noundef readonly %0, i64 noundef %1, i1 noundef zeroext %2) local_unnamed_addr #2 {
  %4 = getelementptr inbounds i8, ptr %0, i64 32
  %5 = load ptr, ptr %4, align 8
  %6 = getelementptr inbounds i8, ptr %5, i64 16
  store i64 %1, ptr %6, align 8
  br i1 %2, label %12, label %7

7:                                                ; preds = %3
  %8 = load ptr, ptr %4, align 8
  %9 = getelementptr inbounds i8, ptr %8, i64 16
  %10 = load i64, ptr %9, align 8
  %11 = add i64 %10, 1
  store i64 %11, ptr %9, align 8
  br label %12

12:                                               ; preds = %7, %3
  ret void
}